target datalayout = "e-m:e-p270:32:32-p271:32:32-p272:64:64-i64:64-i128:128-f80:128-n8:16:32:64-S128"
target triple = "x86_64-pc-linux-gnu"

@.str.3 = private unnamed_addr constant [17 x i8] c"ob_iconv_handler\00", align 1
@.str.81 = private unnamed_addr constant [18 x i8] c"mb_output_handler\00", align 1

; Function Attrs: nounwind uwtable
define internal i32 @php_iconv_output_conflict(ptr noundef %0, i64 noundef %1) #0 {
  %3 = alloca i32, align 4
  %4 = alloca ptr, align 8
  %5 = alloca i64, align 8
  store ptr %0, ptr %4, align 8, !tbaa !23
  store i64 %1, ptr %5, align 8, !tbaa !24
  %6 = call i32 @php_output_get_level()
  %7 = icmp ne i32 %6, 0
  br i1 %7, label %8, label %18

8:                                                ; preds = %2
  %9 = load ptr, ptr %4, align 8, !tbaa !23
  %10 = load i64, ptr %5, align 8, !tbaa !24
  %11 = call zeroext i1 @php_output_handler_conflict(ptr noundef %9, i64 noundef %10, ptr noundef @.str.3, i64 noundef 16)
  br i1 %11, label %16, label %12

12:                                               ; preds = %8
  %13 = load ptr, ptr %4, align 8, !tbaa !23
  %14 = load i64, ptr %5, align 8, !tbaa !24
  %15 = call zeroext i1 @php_output_handler_conflict(ptr noundef %13, i64 noundef %14, ptr noundef @.str.81, i64 noundef 17)
  br i1 %15, label %16, label %17

16:                                               ; preds = %12, %8
  store i32 -1, ptr %3, align 4
  br label %19

17:                                               ; preds = %12
  br label %18

18:                                               ; preds = %17, %2
  store i32 0, ptr %3, align 4
  br label %19

19:                                               ; preds = %18, %16
  %20 = load i32, ptr %3, align 4
  ret i32 %20
}