; Function Attrs: nounwind uwtable
define internal range(i32 -1, 1) i32 @php_iconv_output_conflict(ptr noundef %0, i64 noundef %1) #0 {
  %3 = tail call i32 @php_output_get_level() #16
  %.not = icmp eq i32 %3, 0
  br i1 %.not, label %8, label %4

4:                                                ; preds = %2
  %5 = tail call zeroext i1 @php_output_handler_conflict(ptr noundef %0, i64 noundef %1, ptr noundef nonnull @.str.3, i64 noundef 16) #16
  br i1 %5, label %9, label %6

6:                                                ; preds = %4
  %7 = tail call zeroext i1 @php_output_handler_conflict(ptr noundef %0, i64 noundef %1, ptr noundef nonnull @.str.81, i64 noundef 17) #16
  br i1 %7, label %9, label %8

8:                                                ; preds = %6, %2
  br label %9

9:                                                ; preds = %4, %6, %8
  %.0 = phi i32 [ 0, %8 ], [ -1, %6 ], [ -1, %4 ]
  ret i32 %.0
}